(lp0
(lp1
I1
aI2
aI3
aI4
aI5
aI6
aI7
aI8
aI9
aI10
aI11
aI12
aI13
aI14
aI15
aI16
aI17
aI18
aI19
aI20
aI21
aI22
aI23
aI24
aI25
aI26
aI27
aI28
aI29
aI30
aI31
aI32
aI33
aI34
aI35
aI36
aI37
aI38
aI39
aI40
aI41
aI42
aI43
aI44
aI45
aI46
aI47
aI48
aI49
aI50
aI51
aI52
aI53
aI54
aI55
aI56
aI57
aI58
aI59
aI60
aI61
aI62
aI63
aI64
aI65
aI66
aI67
aI68
aI69
aI70
aI71
aI72
aI73
aI74
aI75
aI76
aI77
aI78
aI79
aI80
aI81
aI82
aI83
aI84
aI85
aI86
aI87
aI88
aI89
aI90
aI91
aI92
aI93
aI94
aI95
aI96
aI97
aI98
aI99
aI100
aI101
aI102
aI103
aI104
aI105
aI106
aI107
aI108
aI109
aI110
aI111
aI112
aI113
aI114
aI115
aI116
aI117
aI118
aI119
aI120
aI121
aI122
aI123
aI124
aI125
aI126
aI127
aI128
aI129
aI130
aI131
aI132
aI133
aI134
aI135
aI136
aI137
aI138
aI139
aI140
aI141
aI142
aI143
aI144
aI145
aI146
aI147
aI148
aI149
aI150
aI151
aI152
aI153
aI154
aI155
aI156
aI157
aI158
aI159
aI160
aI161
aI162
aI163
aI164
aI165
aI166
aI167
aI168
aI169
aI170
aI171
aI172
aI173
aI174
aI175
aI176
aI177
aI178
aI179
aI180
aI181
aI182
aI183
aI184
aI185
aI186
aI187
aI188
aI189
aI190
aa(lp2
F-125.19255065917969
aF-304.28326416015625
aF-462.45367431640625
aF-348.1259460449219
aF22.14596176147461
aF-266.5785827636719
aF-196.68373107910156
aF-302.94183349609375
aF-131.75843811035156
aF58.083980560302734
aF6.780928134918213
aF20.184524536132812
aF-243.1002197265625
aF33.54268264770508
aF332.7192077636719
aF836.6367797851562
aF483.477783203125
aF323.3486633300781
aF-12.547001838684082
aF96.3563232421875
aF40.94874572753906
aF511.31536865234375
aF1029.549560546875
aF767.6188354492188
aF8.407470703125
aF1012.6707763671875
aF698.4664916992188
aF27.340410232543945
aF41.16952896118164
aF69.66536712646484
aF44.98875045776367
aF55.9354248046875
aF404.8269958496094
aF252.64749145507812
aF194.81747436523438
aF10.519908905029297
aF65.30582427978516
aF82.30521392822266
aF38.07065200805664
aF85.51029205322266
aF1856.32861328125
aF905.75732421875
aF14.526582717895508
aF127.69237518310547
aF122.66194152832031
aF126.16869354248047
aF45.91682815551758
aF162.77279663085938
aF131.35670471191406
aF2687.5888671875
aF690.044677734375
aF35.29230880737305
aF64.36067199707031
aF55.895381927490234
aF78.88906860351562
aF275.55572509765625
aF557.4732055664062
aF-9.083989143371582
aF823.4059448242188
aF388.85662841796875
aF698.8775634765625
aF912.261474609375
aF1959.2578125
aF357.1322326660156
aF17.801700592041016
aF24.114896774291992
aF18.25059700012207
aF400.7603759765625
aF73.79182434082031
aF28.777040481567383
aF26.581825256347656
aF408.2843322753906
aF424.5668640136719
aF119.00267791748047
aF108.11663055419922
aF101.63121795654297
aF48.0865364074707
aF78.39749908447266
aF37.19276809692383
aF53.14356994628906
aF69.4067153930664
aF47.65562057495117
aF545.68408203125
aF956.8980712890625
aF5.3803558349609375
aF308.292236328125
aF102.32284545898438
aF104.51499938964844
aF110.27268981933594
aF81.36958312988281
aF134.81178283691406
aF769.4356689453125
aF134.1942596435547
aF114.96208190917969
aF111.80546569824219
aF110.085693359375
aF139.51547241210938
aF140.00575256347656
aF117.68640899658203
aF111.17046356201172
aF126.77243041992188
aF137.07786560058594
aF137.16293334960938
aF-5.76867151260376
aF122.70260620117188
aF84.74774932861328
aF145.23841857910156
aF113.4759292602539
aF103.0165786743164
aF128.4277801513672
aF116.16129302978516
aF84.45408630371094
aF107.67913818359375
aF112.18572998046875
aF125.97382354736328
aF94.00696563720703
aF135.52548217773438
aF125.50839233398438
aF92.87532806396484
aF107.83415985107422
aF87.43840789794922
aF115.50692749023438
aF122.17675018310547
aF90.87305450439453
aF102.91093444824219
aF58.6804084777832
aF102.73592376708984
aF98.6106948852539
aF82.01520538330078
aF82.0255126953125
aF104.96331024169922
aF90.1717758178711
aF71.22080993652344
aF517.1656494140625
aF56.63694763183594
aF110.31102752685547
aF39.42158889770508
aF66.42973327636719
aF32.96509552001953
aF49.30924606323242
aF76.678955078125
aF11.403664588928223
aF65.95650482177734
aF35.07188034057617
aF103.11580657958984
aF66.40953063964844
aF82.59027099609375
aF94.01934814453125
aF36.989776611328125
aF65.95510864257812
aF67.3678970336914
aF61.778846740722656
aF23.43670082092285
aF73.21250915527344
aF114.91301727294922
aF86.66136169433594
aF41.94204330444336
aF47.79254913330078
aF43.87276077270508
aF70.91558837890625
aF79.72223663330078
aF76.11027526855469
aF55.99025344848633
aF68.1341323852539
aF424.84344482421875
aF404.2186584472656
aF-3.6754415035247803
aF22.606380462646484
aF-0.8008046746253967
aF20.362091064453125
aF11.627968788146973
aF11.521896362304688
aF15.374664306640625
aF8.57298755645752
aF693.1734008789062
aF47.490604400634766
aF118.80783081054688
aF139.82308959960938
aF84.11067199707031
aF1126.0460205078125
aF4.984257698059082
aF22.10002326965332
aF462.377197265625
aF97.53154754638672
aF1611.93603515625
aF1527.4188232421875
aF94.41557312011719
aF7.6621012687683105
aF22.10951042175293
aF26.269628524780273
aa.