(lp0
(lp1
I1
aI2
aI3
aI4
aI5
aI6
aI7
aI8
aI9
aI10
aI11
aI12
aI13
aI14
aI15
aI16
aI17
aI18
aI19
aI20
aI21
aI22
aI23
aI24
aI25
aI26
aI27
aI28
aI29
aI30
aI31
aI32
aI33
aI34
aI35
aI36
aI37
aI38
aI39
aI40
aI41
aI42
aI43
aI44
aI45
aI46
aI47
aI48
aI49
aI50
aI51
aI52
aI53
aI54
aI55
aI56
aI57
aI58
aI59
aI60
aI61
aI62
aI63
aI64
aI65
aI66
aI67
aI68
aI69
aI70
aI71
aI72
aI73
aI74
aI75
aI76
aI77
aI78
aI79
aI80
aI81
aI82
aI83
aI84
aI85
aI86
aI87
aI88
aI89
aI90
aI91
aI92
aI93
aI94
aI95
aI96
aI97
aI98
aI99
aI100
aI101
aI102
aI103
aI104
aI105
aI106
aI107
aI108
aI109
aI110
aI111
aI112
aI113
aI114
aI115
aI116
aI117
aI118
aI119
aI120
aI121
aI122
aI123
aI124
aI125
aI126
aI127
aI128
aI129
aI130
aI131
aI132
aI133
aI134
aI135
aI136
aI137
aI138
aI139
aI140
aI141
aI142
aI143
aI144
aI145
aI146
aI147
aI148
aI149
aI150
aI151
aI152
aI153
aI154
aI155
aI156
aI157
aI158
aI159
aI160
aI161
aI162
aI163
aI164
aI165
aI166
aI167
aI168
aI169
aI170
aI171
aI172
aI173
aI174
aI175
aI176
aI177
aI178
aI179
aI180
aI181
aI182
aI183
aI184
aI185
aI186
aI187
aI188
aI189
aI190
aI191
aI192
aI193
aI194
aI195
aI196
aI197
aI198
aI199
aI200
aI201
aI202
aI203
aI204
aI205
aI206
aI207
aI208
aI209
aI210
aI211
aI212
aI213
aI214
aI215
aI216
aI217
aI218
aI219
aI220
aI221
aI222
aI223
aI224
aI225
aI226
aI227
aI228
aI229
aI230
aI231
aI232
aI233
aI234
aI235
aI236
aI237
aI238
aI239
aI240
aI241
aI242
aI243
aI244
aI245
aI246
aI247
aI248
aI249
aI250
aI251
aI252
aI253
aI254
aI255
aI256
aI257
aI258
aI259
aI260
aI261
aI262
aI263
aI264
aI265
aI266
aI267
aI268
aI269
aI270
aI271
aI272
aI273
aI274
aI275
aI276
aI277
aI278
aI279
aI280
aI281
aI282
aI283
aI284
aI285
aI286
aI287
aI288
aI289
aI290
aI291
aI292
aI293
aI294
aI295
aI296
aI297
aI298
aI299
aI300
aI301
aI302
aI303
aI304
aI305
aI306
aI307
aI308
aI309
aI310
aI311
aI312
aI313
aI314
aI315
aI316
aI317
aI318
aI319
aI320
aI321
aI322
aI323
aI324
aI325
aI326
aI327
aI328
aI329
aI330
aI331
aI332
aI333
aI334
aI335
aI336
aI337
aI338
aI339
aI340
aI341
aI342
aI343
aI344
aI345
aI346
aI347
aI348
aI349
aI350
aI351
aI352
aI353
aI354
aI355
aI356
aI357
aI358
aI359
aI360
aI361
aI362
aI363
aI364
aI365
aI366
aI367
aI368
aI369
aI370
aI371
aI372
aI373
aI374
aI375
aI376
aI377
aI378
aI379
aI380
aI381
aI382
aI383
aI384
aI385
aI386
aI387
aI388
aI389
aI390
aI391
aI392
aI393
aI394
aI395
aI396
aI397
aI398
aI399
aI400
aI401
aI402
aI403
aI404
aI405
aI406
aI407
aI408
aI409
aI410
aI411
aI412
aI413
aI414
aI415
aI416
aI417
aI418
aI419
aI420
aI421
aI422
aI423
aI424
aI425
aI426
aI427
aI428
aI429
aI430
aI431
aI432
aI433
aI434
aI435
aI436
aI437
aI438
aI439
aI440
aI441
aI442
aI443
aI444
aI445
aI446
aI447
aI448
aI449
aI450
aI451
aI452
aI453
aI454
aI455
aI456
aI457
aI458
aI459
aI460
aI461
aI462
aI463
aI464
aI465
aI466
aI467
aI468
aI469
aI470
aI471
aI472
aI473
aI474
aI475
aI476
aI477
aI478
aI479
aI480
aI481
aI482
aI483
aI484
aI485
aI486
aI487
aI488
aI489
aI490
aI491
aI492
aI493
aI494
aI495
aI496
aI497
aI498
aI499
aa(lp2
F-208.33029174804688
aF-1113.409912109375
aF-164.39710998535156
aF-279.40087890625
aF-1361.156982421875
aF-402.796630859375
aF-378.3420715332031
aF47.020381927490234
aF-1416.7579345703125
aF-173.98228454589844
aF-373.6352233886719
aF63.45528793334961
aF-911.972412109375
aF-377.06219482421875
aF-257.3441467285156
aF-295.54681396484375
aF-532.5737915039062
aF-93.009033203125
aF-336.586669921875
aF-72.95157623291016
aF-309.4021911621094
aF-256.45391845703125
aF-168.0060272216797
aF-19.137483596801758
aF-151.92227172851562
aF-219.99351501464844
aF-282.3061828613281
aF-374.03839111328125
aF-399.6237487792969
aF-222.85617065429688
aF-156.06698608398438
aF-32.72456359863281
aF701.873046875
aF-316.7080383300781
aF-11.691761016845703
aF-0.7737686634063721
aF-29.497928619384766
aF-27.022504806518555
aF-48.243125915527344
aF-12.48809814453125
aF-215.9428253173828
aF531.6151123046875
aF-4.453713893890381
aF0.7858195304870605
aF-29.312196731567383
aF-137.64154052734375
aF-27.479766845703125
aF-16.563854217529297
aF-26.74588394165039
aF-44.153263092041016
aF1.6420879364013672
aF-12.695106506347656
aF-7.205071926116943
aF941.522216796875
aF-389.2652893066406
aF-184.95713806152344
aF-231.5857391357422
aF10.171491622924805
aF-267.100830078125
aF-143.9542236328125
aF-121.52115631103516
aF-72.21403503417969
aF-109.3650894165039
aF8.827920913696289
aF-5.4979567527771
aF-256.6878356933594
aF-115.92912292480469
aF25.880836486816406
aF-311.5537414550781
aF-79.7489242553711
aF-232.45150756835938
aF25.604576110839844
aF2.5655834674835205
aF47.67561340332031
aF39.983802795410156
aF-55.765403747558594
aF21.732662200927734
aF49.456695556640625
aF886.6265869140625
aF115.73100280761719
aF-255.42050170898438
aF-124.29083251953125
aF-17.83235740661621
aF-12.863462448120117
aF-90.29163360595703
aF31.238168716430664
aF5.593747138977051
aF-21.45318031311035
aF89.28374481201172
aF297.42547607421875
aF-84.19046020507812
aF-184.02532958984375
aF-43.67198944091797
aF-49.84938430786133
aF-96.18033599853516
aF-24.052087783813477
aF291.7754821777344
aF-127.1091537475586
aF15.81335163116455
aF-75.35604858398438
aF-229.0218048095703
aF-247.62669372558594
aF-223.5408477783203
aF458.33673095703125
aF-14.233051300048828
aF40.12718963623047
aF-26.165971755981445
aF65.55432891845703
aF-100.4366683959961
aF201.8633270263672
aF-187.35934448242188
aF-116.1596450805664
aF392.03875732421875
aF106.30183410644531
aF-213.14859008789062
aF-97.10478210449219
aF-108.49691772460938
aF-208.1232147216797
aF-156.54354858398438
aF-58.5485954284668
aF-108.691650390625
aF-111.20699310302734
aF-139.6707763671875
aF-279.9798278808594
aF-34.318607330322266
aF-43.21788787841797
aF-108.09159088134766
aF23.61005973815918
aF591.7724609375
aF-119.50785064697266
aF21.749500274658203
aF191.4880828857422
aF149.6217498779297
aF27.616008758544922
aF61.801151275634766
aF-31.823781967163086
aF-18.78264617919922
aF-22.5499324798584
aF100.4056396484375
aF-66.8882064819336
aF771.9521484375
aF-89.32698059082031
aF34.463401794433594
aF488.27325439453125
aF40.369537353515625
aF17.986509323120117
aF76.55330657958984
aF-9.016266822814941
aF-17.000873565673828
aF-141.5970001220703
aF89.7021255493164
aF-79.73268127441406
aF522.2130737304688
aF198.84234619140625
aF377.81146240234375
aF-76.73170471191406
aF-21.766775131225586
aF298.572021484375
aF12.1461820602417
aF279.77740478515625
aF479.0264587402344
aF286.16778564453125
aF96.15541076660156
aF-10.294133186340332
aF-57.690311431884766
aF-181.152099609375
aF-29.70282745361328
aF-65.3057861328125
aF-40.78444290161133
aF-71.43771362304688
aF66.87432098388672
aF109.98919677734375
aF-1.5491894483566284
aF46.247005462646484
aF39.80278396606445
aF-50.16410446166992
aF-93.45240783691406
aF-125.06449890136719
aF-71.51508331298828
aF-3.833087682723999
aF24.970678329467773
aF18.501771926879883
aF14.768898010253906
aF-5.838273048400879
aF-40.282325744628906
aF-290.27294921875
aF-245.64910888671875
aF-123.52532196044922
aF26.107267379760742
aF-34.17634963989258
aF101.11502838134766
aF16.12947654724121
aF873.70947265625
aF789.4694213867188
aF25.782485961914062
aF506.04791259765625
aF-61.6731071472168
aF-10.479741096496582
aF49.284122467041016
aF225.99293518066406
aF-46.7236442565918
aF21.65595245361328
aF26.98536491394043
aF-66.32694244384766
aF-132.40773010253906
aF-87.53472900390625
aF26.719079971313477
aF-67.2921371459961
aF-151.94720458984375
aF207.97047424316406
aF79.70536041259766
aF-3.6386139392852783
aF2.509470224380493
aF1096.9559326171875
aF17.312480926513672
aF-9.756196022033691
aF-4.698604583740234
aF-144.46408081054688
aF-6.830181121826172
aF678.3963623046875
aF3.2887208461761475
aF-11.762490272521973
aF869.5077514648438
aF568.8687744140625
aF-9.149056434631348
aF45.164398193359375
aF264.8625183105469
aF34.20838928222656
aF72.81501770019531
aF33.85106658935547
aF402.3415222167969
aF350.01336669921875
aF5.246212482452393
aF50.6177864074707
aF25.763879776000977
aF-48.643165588378906
aF0.06551841646432877
aF539.2540893554688
aF116.46051025390625
aF169.24935913085938
aF699.0553588867188
aF28.136144638061523
aF-16.52751922607422
aF415.005615234375
aF116.41230010986328
aF276.8100280761719
aF389.1583557128906
aF-5.880035877227783
aF418.91619873046875
aF-15.471946716308594
aF458.97967529296875
aF387.2295837402344
aF1503.9732666015625
aF437.6393127441406
aF211.94747924804688
aF50.73516845703125
aF54.13029098510742
aF56.04776382446289
aF443.2450256347656
aF-50.006324768066406
aF1250.4639892578125
aF4.5102105140686035
aF83.33150482177734
aF1211.3155517578125
aF470.5727233886719
aF3.5249924659729004
aF31.592317581176758
aF-64.76638793945312
aF-38.48606872558594
aF-50.06969451904297
aF-22.961458206176758
aF-3.399867057800293
aF913.9152221679688
aF632.0383911132812
aF13.108648300170898
aF73.55609893798828
aF-4.256414890289307
aF908.5202026367188
aF558.1300048828125
aF219.6545867919922
aF-70.14582061767578
aF514.26953125
aF266.17681884765625
aF39.717281341552734
aF52.78648376464844
aF1359.7174072265625
aF14.84214973449707
aF965.7904052734375
aF145.0128936767578
aF-45.1148796081543
aF1144.0595703125
aF376.83221435546875
aF-34.220211029052734
aF18.063173294067383
aF9.302458763122559
aF462.7984619140625
aF-122.31904602050781
aF690.9095458984375
aF30.023347854614258
aF2214.399169921875
aF148.62213134765625
aF1009.0908203125
aF960.8318481445312
aF-7.280491828918457
aF-124.13308715820312
aF479.9078369140625
aF649.6130981445312
aF217.6713104248047
aF213.00146484375
aF783.6679077148438
aF128.99310302734375
aF47.38082504272461
aF115.18688201904297
aF551.4323120117188
aF1043.0797119140625
aF33.99115753173828
aF1687.553466796875
aF187.64898681640625
aF222.55404663085938
aF565.5130615234375
aF269.6202697753906
aF29.296052932739258
aF3.3751065731048584
aF544.5226440429688
aF92.91244506835938
aF71.63048553466797
aF85.33440399169922
aF75.02265167236328
aF27.05385971069336
aF36.13370895385742
aF122.91219329833984
aF6.305930137634277
aF95.90446472167969
aF54.293968200683594
aF594.075927734375
aF73.9527816772461
aF132.58297729492188
aF95.76813507080078
aF534.646484375
aF143.84312438964844
aF1367.0159912109375
aF16.822376251220703
aF1470.8804931640625
aF-60.409690856933594
aF503.39593505859375
aF698.167236328125
aF706.6497192382812
aF94.38738250732422
aF181.99342346191406
aF-88.83818054199219
aF1724.90673828125
aF1076.386474609375
aF123.40142822265625
aF618.1708374023438
aF3.8192508220672607
aF20.2572021484375
aF8.753788948059082
aF75.86009979248047
aF14.388566017150879
aF35.24587631225586
aF25.949161529541016
aF1881.905517578125
aF113.1263427734375
aF60.00769805908203
aF797.1756591796875
aF1102.5811767578125
aF112.76535034179688
aF43.36268997192383
aF27.524200439453125
aF653.13671875
aF231.9576416015625
aF55.4653205871582
aF661.114990234375
aF87.44377136230469
aF515.2740478515625
aF396.5160827636719
aF759.85693359375
aF181.26123046875
aF39.61373519897461
aF480.0041198730469
aF212.5363006591797
aF39.430389404296875
aF991.4257202148438
aF714.3258666992188
aF115.26690673828125
aF250.62255859375
aF39.64744567871094
aF240.01271057128906
aF47.8883056640625
aF393.3603210449219
aF432.5481262207031
aF113.30436706542969
aF124.14847564697266
aF71.26301574707031
aF473.2859802246094
aF95.83283996582031
aF-97.70222473144531
aF685.8921508789062
aF128.55067443847656
aF-28.069482803344727
aF-80.83795928955078
aF868.0449829101562
aF34.395206451416016
aF510.0632629394531
aF97.29780578613281
aF190.71871948242188
aF402.1828308105469
aF-14.27226448059082
aF66.89016723632812
aF-69.71357727050781
aF1012.7376708984375
aF84.470947265625
aF530.2700805664062
aF123.90402221679688
aF114.88485717773438
aF115.73265838623047
aF459.64886474609375
aF223.34005737304688
aF492.1172790527344
aF504.09033203125
aF48.51873016357422
aF1.231144905090332
aF109.51876068115234
aF11.871700286865234
aF29.760353088378906
aF68.08316802978516
aF56.64595031738281
aF99.77085876464844
aF75.24589538574219
aF-14.153087615966797
aF126.78461456298828
aF1034.522216796875
aF587.61376953125
aF94.0152816772461
aF867.8809204101562
aF21.111061096191406
aF334.1700439453125
aF121.42964935302734
aF19.392333984375
aF59.48807144165039
aF54.068206787109375
aF71.6245346069336
aF127.86217498779297
aF634.8568115234375
aF200.5633087158203
aF454.5951843261719
aF388.701904296875
aF132.3242950439453
aF32.39724349975586
aF2.161139488220215
aF436.6409606933594
aF920.7776489257812
aF223.715087890625
aF1007.5419311523438
aF97.30758666992188
aF1074.6314697265625
aF62.525299072265625
aF-19.91602325439453
aF-6.10064172744751
aF325.9803161621094
aF72.56423950195312
aF48.26173782348633
aF931.4248046875
aF774.7935180664062
aF177.779296875
aF-5.911708831787109
aF27.74712562561035
aF-137.81350708007812
aF45.25368881225586
aF1624.8896484375
aF250.85618591308594
aF259.0272216796875
aF765.8258056640625
aF187.38238525390625
aF89.16651916503906
aF479.1159362792969
aF190.0982666015625
aF15.026482582092285
aF8.280394554138184
aF39.92447280883789
aF31.295318603515625
aF64.65351867675781
aF187.32530212402344
aF18.933441162109375
aF21.866798400878906
aF65.46997833251953
aF172.55795288085938
aF476.0610656738281
aF185.07473754882812
aF877.6832885742188
aF24.106983184814453
aF456.58984375
aF214.2829132080078
aF62.82862091064453
aF-2.771794557571411
aF80.4737319946289
aF91.01146697998047
aF129.51773071289062
aF60.24001693725586
aa.